; Function Attrs: mustprogress nounwind uwtable
define hidden void @_ZN16JvmtiBreakpointsC2EPFvPvPPhE(ptr noundef nonnull align 8 dereferenceable(40) %0, ptr noundef %1) unnamed_addr #0 align 2 {
  %3 = getelementptr inbounds i8, ptr %0, i64 8
  %4 = getelementptr inbounds i8, ptr %0, i64 16
  tail call void @llvm.memset.p0.i64(ptr noundef nonnull align 8 dereferenceable(32) %4, i8 0, i64 16, i1 false)
  store ptr %0, ptr %3, align 8
  %5 = getelementptr inbounds i8, ptr %0, i64 32
  store ptr %1, ptr %5, align 8
  %6 = tail call noundef ptr @_ZN6AnyObjnwEm8MEMFLAGS(i64 noundef 24, i8 noundef zeroext 23) #17
  %7 = icmp eq ptr %6, null
  br i1 %7, label %_ZN20JvmtiBreakpointCache10initializeEPvPFvS0_PPhE.exit, label %8

8:                                                ; preds = %2
  %9 = tail call noundef ptr @_ZN27GrowableArrayCHeapAllocator8allocateEii8MEMFLAGS(i32 noundef 5, i32 noundef 8, i8 noundef zeroext 23) #17
  store i32 0, ptr %6, align 4
  %10 = getelementptr inbounds i8, ptr %6, i64 4
  store i32 5, ptr %10, align 4
  %11 = getelementptr inbounds i8, ptr %6, i64 8
  store ptr %9, ptr %11, align 8
  tail call void @llvm.memset.p0.i64(ptr noundef nonnull align 8 dereferenceable(40) %9, i8 0, i64 40, i1 false)
  %12 = getelementptr inbounds i8, ptr %6, i64 16
  store i64 47, ptr %12, align 8
  br label %_ZN20JvmtiBreakpointCache10initializeEPvPFvS0_PPhE.exit

_ZN20JvmtiBreakpointCache10initializeEPvPFvS0_PPhE.exit: ; preds = %2, %8
  %13 = getelementptr inbounds i8, ptr %0, i64 16
  store ptr %6, ptr %13, align 8
  tail call void @_ZN13GrowableCache7recacheEv(ptr noundef nonnull align 8 dereferenceable(32) %3)
  ret void
}